Certificate:
    Data:
        Version: 3 (0x2)
        Serial Number: 1 (0x1)
    Signature Algorithm: sha1WithRSAEncryption
        Issuer: C=JP, ST=Aichi, L=Okazaki, O=ADTEK FUJI Co.,ltd., OU=Second Engineering Department, CN=adtekfujica/emailAddress=ca@adtek-fuji.co.jp
        Validity
            Not Before: Feb  6 01:53:38 2015 GMT
            Not After : Feb  5 01:53:38 2018 GMT
        Subject: C=JP, ST=Aichi, L=Okazaki, O=ADTEK FUJI Co.,ltd., OU=Second Engineering Department, CN=adFactory
        Subject Public Key Info:
            Public Key Algorithm: rsaEncryption
                Public-Key: (2048 bit)
                Modulus:
                    00:8f:75:da:15:cb:43:5b:d6:8f:d0:e4:67:e4:ee:
                    8d:85:fb:a0:b4:6e:90:b5:80:71:f7:13:2e:6b:44:
                    e3:b1:c2:7d:83:af:86:8c:2d:d3:21:36:ed:01:38:
                    46:5f:9f:c0:68:74:98:15:2a:72:7a:5d:49:62:cc:
                    9f:d9:1b:92:93:cc:89:c6:23:7c:58:bb:c7:1f:86:
                    a0:7a:7e:8a:61:90:4b:78:fe:2d:3b:cd:ca:3e:01:
                    52:26:d8:55:b9:f0:93:4f:f6:41:30:f6:c3:8b:c5:
                    5a:2e:8a:bb:e1:12:ad:67:16:7c:58:8a:04:2d:b5:
                    90:40:79:4a:7e:4b:35:09:e7:1c:c6:76:aa:40:4c:
                    c6:27:90:f0:c8:35:28:85:d8:1c:ee:5e:87:c2:e5:
                    29:2d:bb:1b:b6:15:cd:4f:ff:11:1d:0d:b2:47:da:
                    d3:89:fd:e8:27:22:ce:52:bf:3d:f8:1d:e5:21:41:
                    3c:bf:b2:62:db:39:a2:5c:1b:a8:ee:3d:67:4e:cc:
                    b7:3b:2e:e3:29:d3:43:40:56:0a:67:b1:67:99:e7:
                    13:c3:7e:77:34:37:71:64:67:a2:76:ff:db:ea:a4:
                    dc:53:ed:5c:f5:fb:2c:20:48:5a:97:90:55:1b:82:
                    bd:42:62:32:ab:6c:db:ba:95:9e:2b:d9:5e:6d:cf:
                    40:57
                Exponent: 65537 (0x10001)
        X509v3 extensions:
            X509v3 Basic Constraints: 
                CA:FALSE
            Netscape Cert Type: 
                SSL Server
            Netscape Comment: 
                OpenSSL Generated Certificate
            X509v3 Subject Key Identifier: 
                32:78:FD:19:98:CA:6F:48:E4:A5:C0:CD:31:3D:EE:80:37:9C:36:02
            X509v3 Authority Key Identifier: 
                keyid:FE:96:98:FA:7B:D2:D4:27:DD:4D:3D:B0:E4:96:87:6A:4E:01:DC:A8

    Signature Algorithm: sha1WithRSAEncryption
         24:32:80:04:fe:77:b3:97:66:42:72:94:6f:ca:4d:aa:22:e2:
         a7:1f:46:c6:dd:6d:04:3b:00:92:0f:ae:13:6e:4f:e6:47:74:
         0e:9b:2a:ea:0c:38:18:38:4e:7a:76:fa:a6:87:41:35:92:61:
         22:2e:fa:df:51:84:99:76:1f:e9:78:de:36:5b:77:8e:30:88:
         6f:f6:e3:d8:46:97:48:ce:16:ab:df:f6:ac:e8:8e:d0:86:8d:
         58:0d:e0:c7:c6:89:e5:3c:4a:b4:33:c2:ec:21:2a:a2:9f:31:
         69:9a:52:8c:de:19:d4:88:1b:f5:42:a5:6d:c5:4f:d6:25:f1:
         3c:65
-----BEGIN CERTIFICATE-----
MIIDxDCCAy2gAwIBAgIBATANBgkqhkiG9w0BAQUFADCBrzELMAkGA1UEBhMCSlAx
DjAMBgNVBAgMBUFpY2hpMRAwDgYDVQQHDAdPa2F6YWtpMRwwGgYDVQQKDBNBRFRF
SyBGVUpJIENvLixsdGQuMSYwJAYDVQQLDB1TZWNvbmQgRW5naW5lZXJpbmcgRGVw
YXJ0bWVudDEUMBIGA1UEAwwLYWR0ZWtmdWppY2ExIjAgBgkqhkiG9w0BCQEWE2Nh
QGFkdGVrLWZ1amkuY28uanAwHhcNMTUwMjA2MDE1MzM4WhcNMTgwMjA1MDE1MzM4
WjCBiTELMAkGA1UEBhMCSlAxDjAMBgNVBAgTBUFpY2hpMRAwDgYDVQQHEwdPa2F6
YWtpMRwwGgYDVQQKExNBRFRFSyBGVUpJIENvLixsdGQuMSYwJAYDVQQLEx1TZWNv
bmQgRW5naW5lZXJpbmcgRGVwYXJ0bWVudDESMBAGA1UEAxMJYWRGYWN0b3J5MIIB
IjANBgkqhkiG9w0BAQEFAAOCAQ8AMIIBCgKCAQEAj3XaFctDW9aP0ORn5O6Nhfug
tG6QtYBx9xMua0TjscJ9g6+GjC3TITbtAThGX5/AaHSYFSpyel1JYsyf2RuSk8yJ
xiN8WLvHH4agen6KYZBLeP4tO83KPgFSJthVufCTT/ZBMPbDi8VaLoq74RKtZxZ8
WIoELbWQQHlKfks1CeccxnaqQEzGJ5DwyDUohdgc7l6HwuUpLbsbthXNT/8RHQ2y
R9rTif3oJyLOUr89+B3lIUE8v7Ji2zmiXBuo7j1nTsy3Oy7jKdNDQFYKZ7FnmecT
w353NDdxZGeidv/b6qTcU+1c9fssIEhal5BVG4K9QmIyq2zbupWeK9lebc9AVwID
AQABo4GPMIGMMAkGA1UdEwQCMAAwEQYJYIZIAYb4QgEBBAQDAgZAMCwGCWCGSAGG
+EIBDQQfFh1PcGVuU1NMIEdlbmVyYXRlZCBDZXJ0aWZpY2F0ZTAdBgNVHQ4EFgQU
Mnj9GZjKb0jkpcDNMT3ugDecNgIwHwYDVR0jBBgwFoAU/paY+nvS1CfdTT2w5JaH
ak4B3KgwDQYJKoZIhvcNAQEFBQADgYEAJDKABP53s5dmQnKUb8pNqiLipx9Gxt1t
BDsAkg+uE25P5kd0Dpsq6gw4GDhOenb6podBNZJhIi7631GEmXYf6XjeNlt3jjCI
b/bj2EaXSM4Wq9/2rOiO0IaNWA3gx8aJ5TxKtDPC7CEqop8xaZpSjN4Z1Igb9UKl
bcVP1iXxPGU=
-----END CERTIFICATE-----
